; Function Attrs: mustprogress uwtable
define hidden void @_ZN2cv5GNodeC2Ev(ptr noundef nonnull writeonly align 8 captures(none) dereferenceable(16) initializes((0, 16)) %0) unnamed_addr #5 align 2 personality ptr @__gxx_personality_v0 {
  %2 = tail call noalias noundef nonnull dereferenceable(64) ptr @_Znwm(i64 noundef 64) #18
  store i32 0, ptr %2, align 8, !tbaa !3
  %3 = getelementptr inbounds nuw i8, ptr %2, i64 8
  store i64 0, ptr %3, align 8, !tbaa !14
  %4 = getelementptr inbounds nuw i8, ptr %2, i64 32
  %5 = getelementptr inbounds nuw i8, ptr %2, i64 48
  store ptr %5, ptr %4, align 8, !tbaa !15
  %6 = getelementptr inbounds nuw i8, ptr %2, i64 40
  store i64 0, ptr %6, align 8, !tbaa !16
  store i8 0, ptr %5, align 1, !tbaa !17
  store ptr %2, ptr %0, align 8, !tbaa !26
  %7 = getelementptr inbounds nuw i8, ptr %0, i64 8
  store ptr null, ptr %7, align 8, !tbaa !23
  %8 = invoke noalias noundef nonnull dereferenceable(24) ptr @_Znwm(i64 noundef 24) #18
          to label %_ZNSt14__shared_countILN9__gnu_cxx12_Lock_policyE2EEC2IPN2cv5GNode4PrivEEET_.exit unwind label %9

9:                                                ; preds = %1
  %10 = landingpad { ptr, i32 }
          catch ptr null
  %11 = extractvalue { ptr, i32 } %10, 0
  %12 = tail call ptr @__cxa_begin_catch(ptr %11) #19
  tail call void @_ZN2cv5GNode4PrivD2Ev(ptr noundef nonnull align 8 dereferenceable(64) %2) #19
  tail call void @_ZdlPv(ptr noundef nonnull %2) #20
  invoke void @__cxa_rethrow() #21
          to label %19 unwind label %13

13:                                               ; preds = %9
  %14 = landingpad { ptr, i32 }
          cleanup
  invoke void @__cxa_end_catch()
          to label %15 unwind label %16

15:                                               ; preds = %13
  resume { ptr, i32 } %14

16:                                               ; preds = %13
  %17 = landingpad { ptr, i32 }
          catch ptr null
  %18 = extractvalue { ptr, i32 } %17, 0
  tail call void @__clang_call_terminate(ptr %18) #22
  unreachable

19:                                               ; preds = %9
  unreachable

_ZNSt14__shared_countILN9__gnu_cxx12_Lock_policyE2EEC2IPN2cv5GNode4PrivEEET_.exit: ; preds = %1
  %20 = getelementptr inbounds nuw i8, ptr %8, i64 8
  store i32 1, ptr %20, align 8, !tbaa !29
  %21 = getelementptr inbounds nuw i8, ptr %8, i64 12
  store i32 1, ptr %21, align 4, !tbaa !31
  store ptr getelementptr inbounds nuw inrange(-16, 40) (i8, ptr @_ZTVSt15_Sp_counted_ptrIPN2cv5GNode4PrivELN9__gnu_cxx12_Lock_policyE2EE, i64 16), ptr %8, align 8, !tbaa !32
  %22 = getelementptr inbounds nuw i8, ptr %8, i64 16
  store ptr %2, ptr %22, align 8, !tbaa !34
  store ptr %8, ptr %7, align 8, !tbaa !23
  ret void
}